; Function Attrs: mustprogress nounwind uwtable
define hidden noundef i64 @_ZNK22BaseCountedLoopEndNode10stride_conEv(ptr noundef nonnull align 8 dereferenceable(60) %0) local_unnamed_addr #0 align 2 {
_ZNK22BaseCountedLoopEndNode8cmp_nodeEv.exit.i.i:
  %1 = getelementptr inbounds i8, ptr %0, i64 8
  %2 = load ptr, ptr %1, align 8
  %3 = getelementptr inbounds i8, ptr %2, i64 8
  %4 = load ptr, ptr %3, align 8
  %5 = getelementptr inbounds i8, ptr %4, i64 24
  %6 = load i32, ptr %5, align 8
  %7 = icmp ugt i32 %6, 1
  tail call void @llvm.assume(i1 %7)
  %8 = getelementptr inbounds i8, ptr %4, i64 8
  %9 = load ptr, ptr %8, align 8
  %10 = getelementptr inbounds i8, ptr %9, i64 8
  %11 = load ptr, ptr %10, align 8, !nonnull !21, !noundef !21
  %12 = getelementptr inbounds i8, ptr %11, i64 24
  %13 = load i32, ptr %12, align 8
  %14 = icmp eq i32 %13, 3
  tail call void @llvm.assume(i1 %14)
  %15 = getelementptr inbounds i8, ptr %11, i64 8
  %16 = load ptr, ptr %15, align 8
  %17 = getelementptr inbounds i8, ptr %16, i64 8
  %18 = load ptr, ptr %17, align 8, !nonnull !21, !noundef !21
  %19 = getelementptr inbounds i8, ptr %18, i64 24
  %20 = load i32, ptr %19, align 8
  %21 = icmp eq i32 %20, 3
  tail call void @llvm.assume(i1 %21)
  %22 = getelementptr inbounds i8, ptr %18, i64 8
  %23 = load ptr, ptr %22, align 8
  %24 = getelementptr inbounds i8, ptr %23, i64 16
  %25 = load ptr, ptr %24, align 8
  %26 = load ptr, ptr %25, align 8
  %27 = getelementptr inbounds i8, ptr %26, i64 40
  %28 = load ptr, ptr %27, align 8
  %29 = tail call noundef ptr %28(ptr noundef nonnull align 8 dereferenceable(52) %25) #15
  %30 = load ptr, ptr %0, align 8
  %31 = getelementptr inbounds i8, ptr %30, i64 208
  %32 = load ptr, ptr %31, align 8
  %33 = tail call noundef zeroext i8 %32(ptr noundef nonnull align 8 dereferenceable(60) %0) #15
  %34 = load ptr, ptr %0, align 8
  %35 = getelementptr inbounds i8, ptr %34, i64 208
  %36 = load ptr, ptr %35, align 8
  %37 = tail call noundef zeroext i8 %36(ptr noundef nonnull align 8 dereferenceable(60) %0) #15
  %38 = tail call noundef i64 @_ZNK11TypeInteger15get_con_as_longE9BasicType(ptr noundef nonnull align 8 dereferenceable(22) %29, i8 noundef zeroext %37) #15
  ret i64 %38
}